target datalayout = "e-m:e-p270:32:32-p271:32:32-p272:64:64-i64:64-i128:128-f80:128-n8:16:32:64-S128"
target triple = "x86_64-pc-linux-gnu"

%"class.grpc_core::BackOff" = type { %"class.grpc_core::BackOff::Options", %"class.absl::lts_20240722::random_internal::NonsecureURBGBase", i8, %"class.grpc_core::Duration" }
%"class.grpc_core::BackOff::Options" = type { %"class.grpc_core::Duration", double, double, %"class.grpc_core::Duration" }
%"class.absl::lts_20240722::random_internal::NonsecureURBGBase" = type { %"class.absl::lts_20240722::random_internal::randen_engine" }
%"class.absl::lts_20240722::random_internal::randen_engine" = type { [264 x i8], i64, %"class.absl::lts_20240722::random_internal::Randen" }
%"class.absl::lts_20240722::random_internal::Randen" = type <{ ptr, i8, [7 x i8] }>
%"class.grpc_core::Duration" = type { i64 }
%"class.absl::lts_20240722::random_internal::RandenPoolSeedSeq" = type { i8 }

; Function Attrs: inlinehint mustprogress nounwind uwtable
define linkonce_odr void @_ZSt9__fill_a1IPmmEN9__gnu_cxx11__enable_ifIXsr11__is_scalarIT0_EE7__valueEvE6__typeET_S6_RKS3_(ptr noundef %0, ptr noundef %1, ptr noundef nonnull align 8 dereferenceable(8) %2) #12 comdat {
  %4 = alloca ptr, align 8
  %5 = alloca ptr, align 8
  %6 = alloca ptr, align 8
  %7 = alloca i64, align 8
  store ptr %0, ptr %4, align 8, !tbaa !44
  store ptr %1, ptr %5, align 8, !tbaa !44
  store ptr %2, ptr %6, align 8, !tbaa !44
  call void @llvm.lifetime.start.p0(i64 8, ptr %7) #3
  %8 = load ptr, ptr %6, align 8, !tbaa !44
  %9 = load i64, ptr %8, align 8, !tbaa !11
  store i64 %9, ptr %7, align 8, !tbaa !11
  br label %10

10:                                               ; preds = %17, %3
  %11 = load ptr, ptr %4, align 8, !tbaa !44
  %12 = load ptr, ptr %5, align 8, !tbaa !44
  %13 = icmp ne ptr %11, %12
  br i1 %13, label %14, label %20

14:                                               ; preds = %10
  %15 = load i64, ptr %7, align 8, !tbaa !11
  %16 = load ptr, ptr %4, align 8, !tbaa !44
  store i64 %15, ptr %16, align 8, !tbaa !11
  br label %17

17:                                               ; preds = %14
  %18 = load ptr, ptr %4, align 8, !tbaa !44
  %19 = getelementptr inbounds nuw i64, ptr %18, i32 1
  store ptr %19, ptr %4, align 8, !tbaa !44
  br label %10, !llvm.loop !53

20:                                               ; preds = %10
  call void @llvm.lifetime.end.p0(i64 8, ptr %7) #3
  ret void
}

; Function Attrs: inlinehint mustprogress nounwind uwtable
define linkonce_odr void @_ZSt9__fill_a1IPmiEN9__gnu_cxx11__enable_ifIXsr11__is_scalarIT0_EE7__valueEvE6__typeET_S6_RKS3_(ptr noundef %0, ptr noundef %1, ptr noundef nonnull align 4 dereferenceable(4) %2) #12 comdat {
  %4 = alloca ptr, align 8
  %5 = alloca ptr, align 8
  %6 = alloca ptr, align 8
  %7 = alloca i32, align 4
  store ptr %0, ptr %4, align 8, !tbaa !44
  store ptr %1, ptr %5, align 8, !tbaa !44
  store ptr %2, ptr %6, align 8, !tbaa !50
  call void @llvm.lifetime.start.p0(i64 4, ptr %7) #3
  %8 = load ptr, ptr %6, align 8, !tbaa !50
  %9 = load i32, ptr %8, align 4, !tbaa !46
  store i32 %9, ptr %7, align 4, !tbaa !46
  br label %10

10:                                               ; preds = %18, %3
  %11 = load ptr, ptr %4, align 8, !tbaa !44
  %12 = load ptr, ptr %5, align 8, !tbaa !44
  %13 = icmp ne ptr %11, %12
  br i1 %13, label %14, label %21

14:                                               ; preds = %10
  %15 = load i32, ptr %7, align 4, !tbaa !46
  %16 = sext i32 %15 to i64
  %17 = load ptr, ptr %4, align 8, !tbaa !44
  store i64 %16, ptr %17, align 8, !tbaa !11
  br label %18

18:                                               ; preds = %14
  %19 = load ptr, ptr %4, align 8, !tbaa !44
  %20 = getelementptr inbounds nuw i64, ptr %19, i32 1
  store ptr %20, ptr %4, align 8, !tbaa !44
  br label %10, !llvm.loop !52

21:                                               ; preds = %10
  call void @llvm.lifetime.end.p0(i64 4, ptr %7) #3
  ret void
}

; Function Attrs: inlinehint mustprogress uwtable
define linkonce_odr void @_ZSt8__fill_aIPmmEvT_S1_RKT0_(ptr noundef %0, ptr noundef %1, ptr noundef nonnull align 8 dereferenceable(8) %2) #7 comdat {
  %4 = alloca ptr, align 8
  %5 = alloca ptr, align 8
  %6 = alloca ptr, align 8
  store ptr %0, ptr %4, align 8, !tbaa !44
  store ptr %1, ptr %5, align 8, !tbaa !44
  store ptr %2, ptr %6, align 8, !tbaa !44
  %7 = load ptr, ptr %4, align 8, !tbaa !44
  %8 = load ptr, ptr %5, align 8, !tbaa !44
  %9 = load ptr, ptr %6, align 8, !tbaa !44
  call void @_ZSt9__fill_a1IPmmEN9__gnu_cxx11__enable_ifIXsr11__is_scalarIT0_EE7__valueEvE6__typeET_S6_RKS3_(ptr noundef %7, ptr noundef %8, ptr noundef nonnull align 8 dereferenceable(8) %9)
  ret void
}

; Function Attrs: inlinehint mustprogress uwtable
define linkonce_odr void @_ZSt8__fill_aIPmiEvT_S1_RKT0_(ptr noundef %0, ptr noundef %1, ptr noundef nonnull align 4 dereferenceable(4) %2) #7 comdat {
  %4 = alloca ptr, align 8
  %5 = alloca ptr, align 8
  %6 = alloca ptr, align 8
  store ptr %0, ptr %4, align 8, !tbaa !44
  store ptr %1, ptr %5, align 8, !tbaa !44
  store ptr %2, ptr %6, align 8, !tbaa !50
  %7 = load ptr, ptr %4, align 8, !tbaa !44
  %8 = load ptr, ptr %5, align 8, !tbaa !44
  %9 = load ptr, ptr %6, align 8, !tbaa !50
  call void @_ZSt9__fill_a1IPmiEN9__gnu_cxx11__enable_ifIXsr11__is_scalarIT0_EE7__valueEvE6__typeET_S6_RKS3_(ptr noundef %7, ptr noundef %8, ptr noundef nonnull align 4 dereferenceable(4) %9)
  ret void
}

; Function Attrs: inlinehint mustprogress uwtable
define linkonce_odr void @_ZSt4fillIPmmEvT_S1_RKT0_(ptr noundef %0, ptr noundef %1, ptr noundef nonnull align 8 dereferenceable(8) %2) #7 comdat {
  %4 = alloca ptr, align 8
  %5 = alloca ptr, align 8
  %6 = alloca ptr, align 8
  store ptr %0, ptr %4, align 8, !tbaa !44
  store ptr %1, ptr %5, align 8, !tbaa !44
  store ptr %2, ptr %6, align 8, !tbaa !44
  %7 = load ptr, ptr %4, align 8, !tbaa !44
  %8 = load ptr, ptr %5, align 8, !tbaa !44
  %9 = load ptr, ptr %6, align 8, !tbaa !44
  call void @_ZSt8__fill_aIPmmEvT_S1_RKT0_(ptr noundef %7, ptr noundef %8, ptr noundef nonnull align 8 dereferenceable(8) %9)
  ret void
}

; Function Attrs: inlinehint mustprogress uwtable
define linkonce_odr void @_ZSt4fillIPmiEvT_S1_RKT0_(ptr noundef %0, ptr noundef %1, ptr noundef nonnull align 4 dereferenceable(4) %2) #7 comdat {
  %4 = alloca ptr, align 8
  %5 = alloca ptr, align 8
  %6 = alloca ptr, align 8
  store ptr %0, ptr %4, align 8, !tbaa !44
  store ptr %1, ptr %5, align 8, !tbaa !44
  store ptr %2, ptr %6, align 8, !tbaa !50
  %7 = load ptr, ptr %4, align 8, !tbaa !44
  %8 = load ptr, ptr %5, align 8, !tbaa !44
  %9 = load ptr, ptr %6, align 8, !tbaa !50
  call void @_ZSt8__fill_aIPmiEvT_S1_RKT0_(ptr noundef %7, ptr noundef %8, ptr noundef nonnull align 4 dereferenceable(4) %9)
  ret void
}

; Function Attrs: mustprogress nounwind uwtable
define linkonce_odr noundef ptr @_ZN4absl12lts_2024072215random_internal13randen_engineImE5stateEv(ptr noundef nonnull align 8 dereferenceable(288) %0) #6 comdat align 2 {
  %2 = alloca ptr, align 8
  store ptr %0, ptr %2, align 8, !tbaa !39
  %3 = load ptr, ptr %2, align 8
  %4 = getelementptr inbounds nuw %"class.absl::lts_20240722::random_internal::randen_engine", ptr %3, i32 0, i32 0
  %5 = ptrtoint ptr %4 to i64
  %6 = and i64 %5, 15
  %7 = icmp ne i64 %6, 0
  br i1 %7, label %8, label %12

8:                                                ; preds = %1
  %9 = getelementptr inbounds nuw %"class.absl::lts_20240722::random_internal::randen_engine", ptr %3, i32 0, i32 0
  %10 = getelementptr inbounds [264 x i8], ptr %9, i64 0, i64 0
  %11 = getelementptr inbounds i8, ptr %10, i64 8
  br label %15

12:                                               ; preds = %1
  %13 = getelementptr inbounds nuw %"class.absl::lts_20240722::random_internal::randen_engine", ptr %3, i32 0, i32 0
  %14 = getelementptr inbounds [264 x i8], ptr %13, i64 0, i64 0
  br label %15

15:                                               ; preds = %12, %8
  %16 = phi ptr [ %11, %8 ], [ %14, %12 ]
  ret ptr %16
}

; Function Attrs: mustprogress uwtable
define linkonce_odr void @_ZN4absl12lts_2024072215random_internal13randen_engineImE4seedEm(ptr noundef nonnull align 8 dereferenceable(288) %0, i64 noundef %1) #4 comdat align 2 {
  %3 = alloca ptr, align 8
  %4 = alloca i64, align 8
  %5 = alloca ptr, align 8
  %6 = alloca i32, align 4
  store ptr %0, ptr %3, align 8, !tbaa !39
  store i64 %1, ptr %4, align 8, !tbaa !11
  %7 = load ptr, ptr %3, align 8
  %8 = getelementptr inbounds nuw %"class.absl::lts_20240722::random_internal::randen_engine", ptr %7, i32 0, i32 1
  store i64 32, ptr %8, align 8, !tbaa !43
  call void @llvm.lifetime.start.p0(i64 8, ptr %5) #3
  %9 = call noundef ptr @_ZN4absl12lts_2024072215random_internal13randen_engineImE5stateEv(ptr noundef nonnull align 8 dereferenceable(288) %7)
  store ptr %9, ptr %5, align 8, !tbaa !44
  %10 = load ptr, ptr %5, align 8, !tbaa !44
  %11 = load ptr, ptr %5, align 8, !tbaa !44
  %12 = getelementptr inbounds nuw i64, ptr %11, i64 2
  call void @llvm.lifetime.start.p0(i64 4, ptr %6) #3
  store i32 0, ptr %6, align 4, !tbaa !46
  call void @_ZSt4fillIPmiEvT_S1_RKT0_(ptr noundef %10, ptr noundef %12, ptr noundef nonnull align 4 dereferenceable(4) %6)
  call void @llvm.lifetime.end.p0(i64 4, ptr %6) #3
  %13 = load ptr, ptr %5, align 8, !tbaa !44
  %14 = getelementptr inbounds nuw i64, ptr %13, i64 2
  %15 = load ptr, ptr %5, align 8, !tbaa !44
  %16 = getelementptr inbounds nuw i64, ptr %15, i64 32
  call void @_ZSt4fillIPmmEvT_S1_RKT0_(ptr noundef %14, ptr noundef %16, ptr noundef nonnull align 8 dereferenceable(8) %4)
  call void @llvm.lifetime.end.p0(i64 8, ptr %5) #3
  ret void
}

; Function Attrs: mustprogress uwtable
define linkonce_odr void @_ZN4absl12lts_2024072215random_internal13randen_engineImE4seedIRNS1_17RandenPoolSeedSeqEEENSt9enable_ifIXntsr3std14is_convertibleIT_mEE5valueEvE4typeEOS8_(ptr noundef nonnull align 8 dereferenceable(288) %0, ptr noundef nonnull align 1 dereferenceable(1) %1) #4 comdat align 2 {
  %3 = alloca ptr, align 8
  %4 = alloca ptr, align 8
  store ptr %0, ptr %3, align 8, !tbaa !39
  store ptr %1, ptr %4, align 8, !tbaa !41
  %5 = load ptr, ptr %3, align 8
  call void @_ZN4absl12lts_2024072215random_internal13randen_engineImE4seedEm(ptr noundef nonnull align 8 dereferenceable(288) %5, i64 noundef 0)
  %6 = load ptr, ptr %4, align 8, !tbaa !41
  call void @_ZN4absl12lts_2024072215random_internal13randen_engineImE6reseedINS1_17RandenPoolSeedSeqEEEvRT_(ptr noundef nonnull align 8 dereferenceable(288) %5, ptr noundef nonnull align 1 dereferenceable(1) %6)
  ret void
}

; Function Attrs: mustprogress uwtable
define linkonce_odr void @_ZN4absl12lts_2024072215random_internal13randen_engineImEC2IRNS1_17RandenPoolSeedSeqEvEEOT_(ptr noundef nonnull align 8 dereferenceable(288) %0, ptr noundef nonnull align 1 dereferenceable(1) %1) unnamed_addr #4 comdat align 2 {
  %3 = alloca ptr, align 8
  %4 = alloca ptr, align 8
  store ptr %0, ptr %3, align 8, !tbaa !39
  store ptr %1, ptr %4, align 8, !tbaa !41
  %5 = load ptr, ptr %3, align 8
  %6 = getelementptr inbounds nuw %"class.absl::lts_20240722::random_internal::randen_engine", ptr %5, i32 0, i32 2
  call void @_ZN4absl12lts_2024072215random_internal6RandenC1Ev(ptr noundef nonnull align 8 dereferenceable(9) %6)
  %7 = load ptr, ptr %4, align 8, !tbaa !41
  call void @_ZN4absl12lts_2024072215random_internal13randen_engineImE4seedIRNS1_17RandenPoolSeedSeqEEENSt9enable_ifIXntsr3std14is_convertibleIT_mEE5valueEvE4typeEOS8_(ptr noundef nonnull align 8 dereferenceable(288) %5, ptr noundef nonnull align 1 dereferenceable(1) %7)
  ret void
}

; Function Attrs: mustprogress nounwind uwtable
define linkonce_odr i64 @_ZNK9grpc_core7BackOff7Options15initial_backoffEv(ptr noundef nonnull align 8 dereferenceable(32) %0) #6 comdat align 2 {
  %2 = alloca %"class.grpc_core::Duration", align 8
  %3 = alloca ptr, align 8
  store ptr %0, ptr %3, align 8, !tbaa !8
  %4 = load ptr, ptr %3, align 8
  %5 = getelementptr inbounds nuw %"class.grpc_core::BackOff::Options", ptr %4, i32 0, i32 0
  call void @llvm.memcpy.p0.p0.i64(ptr align 8 %2, ptr align 8 %5, i64 8, i1 false), !tbaa.struct !21
  %6 = getelementptr inbounds nuw %"class.grpc_core::Duration", ptr %2, i32 0, i32 0
  %7 = load i64, ptr %6, align 8
  ret i64 %7
}

; Function Attrs: mustprogress uwtable
define linkonce_odr void @_ZN4absl12lts_2024072215random_internal17NonsecureURBGBaseINS1_13randen_engineImEENS1_17RandenPoolSeedSeqEE13ConstructURBGEv(ptr dead_on_unwind noalias writable sret(%"class.absl::lts_20240722::random_internal::randen_engine") align 8 %0) #4 comdat align 2 {
  %2 = alloca ptr, align 8
  %3 = alloca %"class.absl::lts_20240722::random_internal::RandenPoolSeedSeq", align 1
  store ptr %0, ptr %2, align 8
  call void @llvm.lifetime.start.p0(i64 1, ptr %3) #3
  call void @_ZN4absl12lts_2024072215random_internal13randen_engineImEC2IRNS1_17RandenPoolSeedSeqEvEEOT_(ptr noundef nonnull align 8 dereferenceable(288) %0, ptr noundef nonnull align 1 dereferenceable(1) %3)
  call void @llvm.lifetime.end.p0(i64 1, ptr %3) #3
  ret void
}

; Function Attrs: mustprogress uwtable
define void @_ZN9grpc_core7BackOff5ResetEv(ptr noundef nonnull align 8 dereferenceable(336) %0) #4 align 2 {
  %2 = alloca ptr, align 8
  %3 = alloca %"class.grpc_core::Duration", align 8
  store ptr %0, ptr %2, align 8, !tbaa !3
  %4 = load ptr, ptr %2, align 8
  call void @llvm.lifetime.start.p0(i64 8, ptr %3) #3
  %5 = getelementptr inbounds nuw %"class.grpc_core::BackOff", ptr %4, i32 0, i32 0
  %6 = call i64 @_ZNK9grpc_core7BackOff7Options15initial_backoffEv(ptr noundef nonnull align 8 dereferenceable(32) %5)
  %7 = getelementptr inbounds nuw %"class.grpc_core::Duration", ptr %3, i32 0, i32 0
  store i64 %6, ptr %7, align 8
  %8 = getelementptr inbounds nuw %"class.grpc_core::BackOff", ptr %4, i32 0, i32 3
  call void @llvm.memcpy.p0.p0.i64(ptr align 8 %8, ptr align 8 %3, i64 8, i1 false), !tbaa.struct !21
  call void @llvm.lifetime.end.p0(i64 8, ptr %3) #3
  %9 = getelementptr inbounds nuw %"class.grpc_core::BackOff", ptr %4, i32 0, i32 2
  store i8 1, ptr %9, align 8, !tbaa !22
  ret void
}

; Function Attrs: mustprogress nounwind uwtable
define linkonce_odr void @_ZN9grpc_core8DurationC2Ev(ptr noundef nonnull align 8 dereferenceable(8) %0) unnamed_addr #6 comdat align 2 {
  %2 = alloca ptr, align 8
  store ptr %0, ptr %2, align 8, !tbaa !17
  %3 = load ptr, ptr %2, align 8
  %4 = getelementptr inbounds nuw %"class.grpc_core::Duration", ptr %3, i32 0, i32 0
  store i64 0, ptr %4, align 8, !tbaa !19
  ret void
}

; Function Attrs: mustprogress uwtable
define linkonce_odr void @_ZN4absl12lts_2024072215random_internal17NonsecureURBGBaseINS1_13randen_engineImEENS1_17RandenPoolSeedSeqEEC2Ev(ptr noundef nonnull align 8 dereferenceable(288) %0) unnamed_addr #4 comdat align 2 {
  %2 = alloca ptr, align 8
  store ptr %0, ptr %2, align 8, !tbaa !15
  %3 = load ptr, ptr %2, align 8
  call void @_ZN4absl12lts_2024072215random_internal17NonsecureURBGBaseINS1_13randen_engineImEENS1_17RandenPoolSeedSeqEE13ConstructURBGEv(ptr dead_on_unwind writable sret(%"class.absl::lts_20240722::random_internal::randen_engine") align 8 %3)
  ret void
}

; Function Attrs: mustprogress uwtable
define void @_ZN9grpc_core7BackOffC2ERKNS0_7OptionsE(ptr noundef nonnull align 8 dereferenceable(336) %0, ptr noundef nonnull align 8 dereferenceable(32) %1) unnamed_addr #4 align 2 {
  %3 = alloca ptr, align 8
  %4 = alloca ptr, align 8
  store ptr %0, ptr %3, align 8, !tbaa !3
  store ptr %1, ptr %4, align 8, !tbaa !8
  %5 = load ptr, ptr %3, align 8
  %6 = getelementptr inbounds nuw %"class.grpc_core::BackOff", ptr %5, i32 0, i32 0
  %7 = load ptr, ptr %4, align 8, !tbaa !8
  call void @llvm.memcpy.p0.p0.i64(ptr align 8 %6, ptr align 8 %7, i64 32, i1 false), !tbaa.struct !10
  %8 = getelementptr inbounds nuw %"class.grpc_core::BackOff", ptr %5, i32 0, i32 1
  call void @_ZN4absl12lts_2024072215random_internal17NonsecureURBGBaseINS1_13randen_engineImEENS1_17RandenPoolSeedSeqEEC2Ev(ptr noundef nonnull align 8 dereferenceable(288) %8)
  %9 = getelementptr inbounds nuw %"class.grpc_core::BackOff", ptr %5, i32 0, i32 3
  call void @_ZN9grpc_core8DurationC2Ev(ptr noundef nonnull align 8 dereferenceable(8) %9) #3
  call void @_ZN9grpc_core7BackOff5ResetEv(ptr noundef nonnull align 8 dereferenceable(336) %5)
  ret void
}